	.file	"runtime.c"
	.globl	consts
	.section	.rodata
	.align 32
	.type	consts, @object
	.size	consts, 4096
consts:
	.quad	1
	.byte	0
	.zero	7
	.quad	1
	.byte	1
	.zero	7
	.quad	1
	.byte	2
	.zero	7
	.quad	1
	.byte	3
	.zero	7
	.quad	1
	.byte	4
	.zero	7
	.quad	1
	.byte	5
	.zero	7
	.quad	1
	.byte	6
	.zero	7
	.quad	1
	.byte	7
	.zero	7
	.quad	1
	.byte	8
	.zero	7
	.quad	1
	.byte	9
	.zero	7
	.quad	1
	.byte	10
	.zero	7
	.quad	1
	.byte	11
	.zero	7
	.quad	1
	.byte	12
	.zero	7
	.quad	1
	.byte	13
	.zero	7
	.quad	1
	.byte	14
	.zero	7
	.quad	1
	.byte	15
	.zero	7
	.quad	1
	.byte	16
	.zero	7
	.quad	1
	.byte	17
	.zero	7
	.quad	1
	.byte	18
	.zero	7
	.quad	1
	.byte	19
	.zero	7
	.quad	1
	.byte	20
	.zero	7
	.quad	1
	.byte	21
	.zero	7
	.quad	1
	.byte	22
	.zero	7
	.quad	1
	.byte	23
	.zero	7
	.quad	1
	.byte	24
	.zero	7
	.quad	1
	.byte	25
	.zero	7
	.quad	1
	.byte	26
	.zero	7
	.quad	1
	.byte	27
	.zero	7
	.quad	1
	.byte	28
	.zero	7
	.quad	1
	.byte	29
	.zero	7
	.quad	1
	.byte	30
	.zero	7
	.quad	1
	.byte	31
	.zero	7
	.quad	1
	.byte	32
	.zero	7
	.quad	1
	.byte	33
	.zero	7
	.quad	1
	.byte	34
	.zero	7
	.quad	1
	.byte	35
	.zero	7
	.quad	1
	.byte	36
	.zero	7
	.quad	1
	.byte	37
	.zero	7
	.quad	1
	.byte	38
	.zero	7
	.quad	1
	.byte	39
	.zero	7
	.quad	1
	.byte	40
	.zero	7
	.quad	1
	.byte	41
	.zero	7
	.quad	1
	.byte	42
	.zero	7
	.quad	1
	.byte	43
	.zero	7
	.quad	1
	.byte	44
	.zero	7
	.quad	1
	.byte	45
	.zero	7
	.quad	1
	.byte	46
	.zero	7
	.quad	1
	.byte	47
	.zero	7
	.quad	1
	.byte	48
	.zero	7
	.quad	1
	.byte	49
	.zero	7
	.quad	1
	.byte	50
	.zero	7
	.quad	1
	.byte	51
	.zero	7
	.quad	1
	.byte	52
	.zero	7
	.quad	1
	.byte	53
	.zero	7
	.quad	1
	.byte	54
	.zero	7
	.quad	1
	.byte	55
	.zero	7
	.quad	1
	.byte	56
	.zero	7
	.quad	1
	.byte	57
	.zero	7
	.quad	1
	.byte	58
	.zero	7
	.quad	1
	.byte	59
	.zero	7
	.quad	1
	.byte	60
	.zero	7
	.quad	1
	.byte	61
	.zero	7
	.quad	1
	.byte	62
	.zero	7
	.quad	1
	.byte	63
	.zero	7
	.quad	1
	.byte	64
	.zero	7
	.quad	1
	.byte	65
	.zero	7
	.quad	1
	.byte	66
	.zero	7
	.quad	1
	.byte	67
	.zero	7
	.quad	1
	.byte	68
	.zero	7
	.quad	1
	.byte	69
	.zero	7
	.quad	1
	.byte	70
	.zero	7
	.quad	1
	.byte	71
	.zero	7
	.quad	1
	.byte	72
	.zero	7
	.quad	1
	.byte	73
	.zero	7
	.quad	1
	.byte	74
	.zero	7
	.quad	1
	.byte	75
	.zero	7
	.quad	1
	.byte	76
	.zero	7
	.quad	1
	.byte	77
	.zero	7
	.quad	1
	.byte	78
	.zero	7
	.quad	1
	.byte	79
	.zero	7
	.quad	1
	.byte	80
	.zero	7
	.quad	1
	.byte	81
	.zero	7
	.quad	1
	.byte	82
	.zero	7
	.quad	1
	.byte	83
	.zero	7
	.quad	1
	.byte	84
	.zero	7
	.quad	1
	.byte	85
	.zero	7
	.quad	1
	.byte	86
	.zero	7
	.quad	1
	.byte	87
	.zero	7
	.quad	1
	.byte	88
	.zero	7
	.quad	1
	.byte	89
	.zero	7
	.quad	1
	.byte	90
	.zero	7
	.quad	1
	.byte	91
	.zero	7
	.quad	1
	.byte	92
	.zero	7
	.quad	1
	.byte	93
	.zero	7
	.quad	1
	.byte	94
	.zero	7
	.quad	1
	.byte	95
	.zero	7
	.quad	1
	.byte	96
	.zero	7
	.quad	1
	.byte	97
	.zero	7
	.quad	1
	.byte	98
	.zero	7
	.quad	1
	.byte	99
	.zero	7
	.quad	1
	.byte	100
	.zero	7
	.quad	1
	.byte	101
	.zero	7
	.quad	1
	.byte	102
	.zero	7
	.quad	1
	.byte	103
	.zero	7
	.quad	1
	.byte	104
	.zero	7
	.quad	1
	.byte	105
	.zero	7
	.quad	1
	.byte	106
	.zero	7
	.quad	1
	.byte	107
	.zero	7
	.quad	1
	.byte	108
	.zero	7
	.quad	1
	.byte	109
	.zero	7
	.quad	1
	.byte	110
	.zero	7
	.quad	1
	.byte	111
	.zero	7
	.quad	1
	.byte	112
	.zero	7
	.quad	1
	.byte	113
	.zero	7
	.quad	1
	.byte	114
	.zero	7
	.quad	1
	.byte	115
	.zero	7
	.quad	1
	.byte	116
	.zero	7
	.quad	1
	.byte	117
	.zero	7
	.quad	1
	.byte	118
	.zero	7
	.quad	1
	.byte	119
	.zero	7
	.quad	1
	.byte	120
	.zero	7
	.quad	1
	.byte	121
	.zero	7
	.quad	1
	.byte	122
	.zero	7
	.quad	1
	.byte	123
	.zero	7
	.quad	1
	.byte	124
	.zero	7
	.quad	1
	.byte	125
	.zero	7
	.quad	1
	.byte	126
	.zero	7
	.quad	1
	.byte	127
	.zero	7
	.quad	1
	.byte	-128
	.zero	7
	.quad	1
	.byte	-127
	.zero	7
	.quad	1
	.byte	-126
	.zero	7
	.quad	1
	.byte	-125
	.zero	7
	.quad	1
	.byte	-124
	.zero	7
	.quad	1
	.byte	-123
	.zero	7
	.quad	1
	.byte	-122
	.zero	7
	.quad	1
	.byte	-121
	.zero	7
	.quad	1
	.byte	-120
	.zero	7
	.quad	1
	.byte	-119
	.zero	7
	.quad	1
	.byte	-118
	.zero	7
	.quad	1
	.byte	-117
	.zero	7
	.quad	1
	.byte	-116
	.zero	7
	.quad	1
	.byte	-115
	.zero	7
	.quad	1
	.byte	-114
	.zero	7
	.quad	1
	.byte	-113
	.zero	7
	.quad	1
	.byte	-112
	.zero	7
	.quad	1
	.byte	-111
	.zero	7
	.quad	1
	.byte	-110
	.zero	7
	.quad	1
	.byte	-109
	.zero	7
	.quad	1
	.byte	-108
	.zero	7
	.quad	1
	.byte	-107
	.zero	7
	.quad	1
	.byte	-106
	.zero	7
	.quad	1
	.byte	-105
	.zero	7
	.quad	1
	.byte	-104
	.zero	7
	.quad	1
	.byte	-103
	.zero	7
	.quad	1
	.byte	-102
	.zero	7
	.quad	1
	.byte	-101
	.zero	7
	.quad	1
	.byte	-100
	.zero	7
	.quad	1
	.byte	-99
	.zero	7
	.quad	1
	.byte	-98
	.zero	7
	.quad	1
	.byte	-97
	.zero	7
	.quad	1
	.byte	-96
	.zero	7
	.quad	1
	.byte	-95
	.zero	7
	.quad	1
	.byte	-94
	.zero	7
	.quad	1
	.byte	-93
	.zero	7
	.quad	1
	.byte	-92
	.zero	7
	.quad	1
	.byte	-91
	.zero	7
	.quad	1
	.byte	-90
	.zero	7
	.quad	1
	.byte	-89
	.zero	7
	.quad	1
	.byte	-88
	.zero	7
	.quad	1
	.byte	-87
	.zero	7
	.quad	1
	.byte	-86
	.zero	7
	.quad	1
	.byte	-85
	.zero	7
	.quad	1
	.byte	-84
	.zero	7
	.quad	1
	.byte	-83
	.zero	7
	.quad	1
	.byte	-82
	.zero	7
	.quad	1
	.byte	-81
	.zero	7
	.quad	1
	.byte	-80
	.zero	7
	.quad	1
	.byte	-79
	.zero	7
	.quad	1
	.byte	-78
	.zero	7
	.quad	1
	.byte	-77
	.zero	7
	.quad	1
	.byte	-76
	.zero	7
	.quad	1
	.byte	-75
	.zero	7
	.quad	1
	.byte	-74
	.zero	7
	.quad	1
	.byte	-73
	.zero	7
	.quad	1
	.byte	-72
	.zero	7
	.quad	1
	.byte	-71
	.zero	7
	.quad	1
	.byte	-70
	.zero	7
	.quad	1
	.byte	-69
	.zero	7
	.quad	1
	.byte	-68
	.zero	7
	.quad	1
	.byte	-67
	.zero	7
	.quad	1
	.byte	-66
	.zero	7
	.quad	1
	.byte	-65
	.zero	7
	.quad	1
	.byte	-64
	.zero	7
	.quad	1
	.byte	-63
	.zero	7
	.quad	1
	.byte	-62
	.zero	7
	.quad	1
	.byte	-61
	.zero	7
	.quad	1
	.byte	-60
	.zero	7
	.quad	1
	.byte	-59
	.zero	7
	.quad	1
	.byte	-58
	.zero	7
	.quad	1
	.byte	-57
	.zero	7
	.quad	1
	.byte	-56
	.zero	7
	.quad	1
	.byte	-55
	.zero	7
	.quad	1
	.byte	-54
	.zero	7
	.quad	1
	.byte	-53
	.zero	7
	.quad	1
	.byte	-52
	.zero	7
	.quad	1
	.byte	-51
	.zero	7
	.quad	1
	.byte	-50
	.zero	7
	.quad	1
	.byte	-49
	.zero	7
	.quad	1
	.byte	-48
	.zero	7
	.quad	1
	.byte	-47
	.zero	7
	.quad	1
	.byte	-46
	.zero	7
	.quad	1
	.byte	-45
	.zero	7
	.quad	1
	.byte	-44
	.zero	7
	.quad	1
	.byte	-43
	.zero	7
	.quad	1
	.byte	-42
	.zero	7
	.quad	1
	.byte	-41
	.zero	7
	.quad	1
	.byte	-40
	.zero	7
	.quad	1
	.byte	-39
	.zero	7
	.quad	1
	.byte	-38
	.zero	7
	.quad	1
	.byte	-37
	.zero	7
	.quad	1
	.byte	-36
	.zero	7
	.quad	1
	.byte	-35
	.zero	7
	.quad	1
	.byte	-34
	.zero	7
	.quad	1
	.byte	-33
	.zero	7
	.quad	1
	.byte	-32
	.zero	7
	.quad	1
	.byte	-31
	.zero	7
	.quad	1
	.byte	-30
	.zero	7
	.quad	1
	.byte	-29
	.zero	7
	.quad	1
	.byte	-28
	.zero	7
	.quad	1
	.byte	-27
	.zero	7
	.quad	1
	.byte	-26
	.zero	7
	.quad	1
	.byte	-25
	.zero	7
	.quad	1
	.byte	-24
	.zero	7
	.quad	1
	.byte	-23
	.zero	7
	.quad	1
	.byte	-22
	.zero	7
	.quad	1
	.byte	-21
	.zero	7
	.quad	1
	.byte	-20
	.zero	7
	.quad	1
	.byte	-19
	.zero	7
	.quad	1
	.byte	-18
	.zero	7
	.quad	1
	.byte	-17
	.zero	7
	.quad	1
	.byte	-16
	.zero	7
	.quad	1
	.byte	-15
	.zero	7
	.quad	1
	.byte	-14
	.zero	7
	.quad	1
	.byte	-13
	.zero	7
	.quad	1
	.byte	-12
	.zero	7
	.quad	1
	.byte	-11
	.zero	7
	.quad	1
	.byte	-10
	.zero	7
	.quad	1
	.byte	-9
	.zero	7
	.quad	1
	.byte	-8
	.zero	7
	.quad	1
	.byte	-7
	.zero	7
	.quad	1
	.byte	-6
	.zero	7
	.quad	1
	.byte	-5
	.zero	7
	.quad	1
	.byte	-4
	.zero	7
	.quad	1
	.byte	-3
	.zero	7
	.quad	1
	.byte	-2
	.zero	7
	.quad	1
	.byte	-1
	.zero	7
	.globl	empty
	.bss
	.align 16
	.type	empty, @object
	.size	empty, 16
empty:
	.zero	16
	.text
	.globl	_initArray
	.type	_initArray, @function
_initArray:
.LFB2:
	.cfi_startproc
	pushq	%rbp
	.cfi_def_cfa_offset 16
	.cfi_offset 6, -16
	movq	%rsp, %rbp
	.cfi_def_cfa_register 6
	subq	$32, %rsp
	movq	%rdi, -24(%rbp)
	movq	%rsi, -32(%rbp)
	movq	-24(%rbp), %rax
	salq	$3, %rax
	addq	$1, %rax
	movq	%rax, %rdi
	call	malloc
	movq	%rax, -8(%rbp)
	movq	-8(%rbp), %rax
	movq	-24(%rbp), %rdx
	movq	%rdx, (%rax)
	movl	$1, -12(%rbp)
	jmp	.L2
.L3:
	movl	-12(%rbp), %eax
	cltq
	leaq	0(,%rax,8), %rdx
	movq	-8(%rbp), %rax
	addq	%rax, %rdx
	movq	-32(%rbp), %rax
	movq	%rax, (%rdx)
	addl	$1, -12(%rbp)
.L2:
	movl	-12(%rbp), %eax
	cltq
	cmpq	-24(%rbp), %rax
	jle	.L3
	movq	-8(%rbp), %rax
	addq	$8, %rax
	leave
	.cfi_def_cfa 7, 8
	ret
	.cfi_endproc
.LFE2:
	.size	_initArray, .-_initArray
	.section	.rodata
.LC0:
	.string	"indice %ld excedido!\n"
	.text
	.globl	_checkIndexArray
	.type	_checkIndexArray, @function
_checkIndexArray:
.LFB3:
	.cfi_startproc
	pushq	%rbp
	.cfi_def_cfa_offset 16
	.cfi_offset 6, -16
	movq	%rsp, %rbp
	.cfi_def_cfa_register 6
	subq	$16, %rsp
	movq	%rdi, -8(%rbp)
	movq	%rsi, -16(%rbp)
	cmpq	$0, -16(%rbp)
	js	.L6
	movq	-8(%rbp), %rax
	subq	$8, %rax
	movq	(%rax), %rax
	cmpq	-16(%rbp), %rax
	jge	.L8
.L6:
	movq	stderr(%rip), %rax
	movq	-16(%rbp), %rdx
	movl	$.LC0, %esi
	movq	%rax, %rdi
	movl	$0, %eax
	call	fprintf
	movl	$-1, %edi
	call	exit
.L8:
	nop
	leave
	.cfi_def_cfa 7, 8
	ret
	.cfi_endproc
.LFE3:
	.size	_checkIndexArray, .-_checkIndexArray
	.globl	_allocRecord
	.type	_allocRecord, @function
_allocRecord:
.LFB4:
	.cfi_startproc
	pushq	%rbp
	.cfi_def_cfa_offset 16
	.cfi_offset 6, -16
	movq	%rsp, %rbp
	.cfi_def_cfa_register 6
	subq	$256, %rsp
	movq	%rdi, -248(%rbp)
	movq	%rsi, -168(%rbp)
	movq	%rdx, -160(%rbp)
	movq	%rcx, -152(%rbp)
	movq	%r8, -144(%rbp)
	movq	%r9, -136(%rbp)
	testb	%al, %al
	je	.L10
	movaps	%xmm0, -128(%rbp)
	movaps	%xmm1, -112(%rbp)
	movaps	%xmm2, -96(%rbp)
	movaps	%xmm3, -80(%rbp)
	movaps	%xmm4, -64(%rbp)
	movaps	%xmm5, -48(%rbp)
	movaps	%xmm6, -32(%rbp)
	movaps	%xmm7, -16(%rbp)
.L10:
	movq	%fs:40, %rax
	movq	%rax, -184(%rbp)
	xorl	%eax, %eax
	movq	-248(%rbp), %rax
	salq	$3, %rax
	movq	%rax, %rdi
	call	malloc
	movq	%rax, -216(%rbp)
	movq	-216(%rbp), %rax
	movq	%rax, -224(%rbp)
	movl	$8, -208(%rbp)
	movl	$48, -204(%rbp)
	leaq	16(%rbp), %rax
	movq	%rax, -200(%rbp)
	leaq	-176(%rbp), %rax
	movq	%rax, -192(%rbp)
	movl	$0, -228(%rbp)
	jmp	.L11
.L14:
	movq	-224(%rbp), %rdx
	leaq	8(%rdx), %rax
	movq	%rax, -224(%rbp)
	movl	-208(%rbp), %eax
	cmpl	$48, %eax
	jnb	.L12
	movq	-192(%rbp), %rax
	movl	-208(%rbp), %ecx
	movl	%ecx, %ecx
	addq	%rcx, %rax
	movl	-208(%rbp), %ecx
	addl	$8, %ecx
	movl	%ecx, -208(%rbp)
	jmp	.L13
.L12:
	movq	-200(%rbp), %rax
	leaq	8(%rax), %rcx
	movq	%rcx, -200(%rbp)
.L13:
	movq	(%rax), %rax
	movq	%rax, (%rdx)
	addl	$1, -228(%rbp)
.L11:
	movl	-228(%rbp), %eax
	cltq
	cmpq	-248(%rbp), %rax
	jl	.L14
	movq	-216(%rbp), %rax
	movq	-184(%rbp), %rsi
	xorq	%fs:40, %rsi
	je	.L16
	call	__stack_chk_fail
.L16:
	leave
	.cfi_def_cfa 7, 8
	ret
	.cfi_endproc
.LFE4:
	.size	_allocRecord, .-_allocRecord
	.globl	_allocRecordBis
	.type	_allocRecordBis, @function
_allocRecordBis:
.LFB5:
	.cfi_startproc
	pushq	%rbp
	.cfi_def_cfa_offset 16
	.cfi_offset 6, -16
	movq	%rsp, %rbp
	.cfi_def_cfa_register 6
	subq	$48, %rsp
	movq	%rdi, -40(%rbp)
	movq	%rsi, -48(%rbp)
	movq	-40(%rbp), %rax
	salq	$3, %rax
	movq	%rax, %rdi
	call	malloc
	movq	%rax, -8(%rbp)
	movq	-8(%rbp), %rax
	movq	%rax, -16(%rbp)
	movl	$0, -20(%rbp)
	jmp	.L18
.L19:
	movq	-16(%rbp), %rax
	leaq	8(%rax), %rdx
	movq	%rdx, -16(%rbp)
	movq	-48(%rbp), %rdx
	movq	%rdx, (%rax)
	addl	$1, -20(%rbp)
.L18:
	movl	-20(%rbp), %eax
	cltq
	cmpq	-40(%rbp), %rax
	jl	.L19
	movq	-8(%rbp), %rax
	leave
	.cfi_def_cfa 7, 8
	ret
	.cfi_endproc
.LFE5:
	.size	_allocRecordBis, .-_allocRecordBis
	.section	.rodata
.LC1:
	.string	"Nil!\n"
	.text
	.globl	_checkNil
	.type	_checkNil, @function
_checkNil:
.LFB6:
	.cfi_startproc
	pushq	%rbp
	.cfi_def_cfa_offset 16
	.cfi_offset 6, -16
	movq	%rsp, %rbp
	.cfi_def_cfa_register 6
	subq	$16, %rsp
	movq	%rdi, -8(%rbp)
	cmpq	$0, -8(%rbp)
	jne	.L23
	movq	stderr(%rip), %rax
	movq	%rax, %rcx
	movl	$5, %edx
	movl	$1, %esi
	movl	$.LC1, %edi
	call	fwrite
	movl	$-1, %edi
	call	exit
.L23:
	nop
	leave
	.cfi_def_cfa 7, 8
	ret
	.cfi_endproc
.LFE6:
	.size	_checkNil, .-_checkNil
	.globl	_stringCompare
	.type	_stringCompare, @function
_stringCompare:
.LFB7:
	.cfi_startproc
	pushq	%rbp
	.cfi_def_cfa_offset 16
	.cfi_offset 6, -16
	movq	%rsp, %rbp
	.cfi_def_cfa_register 6
	movq	%rdi, -24(%rbp)
	movq	%rsi, -32(%rbp)
	movq	-24(%rbp), %rax
	cmpq	-32(%rbp), %rax
	jne	.L25
	movl	$0, %eax
	jmp	.L26
.L25:
	movl	$0, -4(%rbp)
	jmp	.L27
.L30:
	movq	-24(%rbp), %rdx
	movl	-4(%rbp), %eax
	cltq
	movzbl	8(%rdx,%rax), %ecx
	movq	-32(%rbp), %rdx
	movl	-4(%rbp), %eax
	cltq
	movzbl	8(%rdx,%rax), %eax
	cmpb	%al, %cl
	je	.L28
	movq	-24(%rbp), %rdx
	movl	-4(%rbp), %eax
	cltq
	movzbl	8(%rdx,%rax), %eax
	movzbl	%al, %ecx
	movq	-32(%rbp), %rdx
	movl	-4(%rbp), %eax
	cltq
	movzbl	8(%rdx,%rax), %eax
	movzbl	%al, %eax
	subl	%eax, %ecx
	movl	%ecx, %eax
	cltq
	jmp	.L26
.L28:
	addl	$1, -4(%rbp)
.L27:
	movl	-4(%rbp), %eax
	movslq	%eax, %rdx
	movq	-24(%rbp), %rax
	movq	(%rax), %rax
	cmpq	%rax, %rdx
	jge	.L29
	movl	-4(%rbp), %eax
	movslq	%eax, %rdx
	movq	-32(%rbp), %rax
	movq	(%rax), %rax
	cmpq	%rax, %rdx
	jl	.L30
.L29:
	movq	-24(%rbp), %rax
	movq	(%rax), %rdx
	movq	-32(%rbp), %rax
	movq	(%rax), %rax
	subq	%rax, %rdx
	movq	%rdx, %rax
.L26:
	popq	%rbp
	.cfi_def_cfa 7, 8
	ret
	.cfi_endproc
.LFE7:
	.size	_stringCompare, .-_stringCompare
	.globl	print
	.type	print, @function
print:
.LFB8:
	.cfi_startproc
	pushq	%rbp
	.cfi_def_cfa_offset 16
	.cfi_offset 6, -16
	movq	%rsp, %rbp
	.cfi_def_cfa_register 6
	subq	$32, %rsp
	movq	%rdi, -24(%rbp)
	movq	-24(%rbp), %rax
	addq	$8, %rax
	movq	%rax, -8(%rbp)
	movl	$0, -12(%rbp)
	jmp	.L32
.L33:
	movq	-8(%rbp), %rax
	movzbl	(%rax), %eax
	movzbl	%al, %eax
	movl	%eax, %edi
	call	putchar
	addl	$1, -12(%rbp)
	addq	$1, -8(%rbp)
.L32:
	movl	-12(%rbp), %eax
	movslq	%eax, %rdx
	movq	-24(%rbp), %rax
	movq	(%rax), %rax
	cmpq	%rax, %rdx
	jl	.L33
	nop
	leave
	.cfi_def_cfa 7, 8
	ret
	.cfi_endproc
.LFE8:
	.size	print, .-print
	.globl	flush
	.type	flush, @function
flush:
.LFB9:
	.cfi_startproc
	pushq	%rbp
	.cfi_def_cfa_offset 16
	.cfi_offset 6, -16
	movq	%rsp, %rbp
	.cfi_def_cfa_register 6
	movq	stdout(%rip), %rax
	movq	%rax, %rdi
	call	fflush
	nop
	popq	%rbp
	.cfi_def_cfa 7, 8
	ret
	.cfi_endproc
.LFE9:
	.size	flush, .-flush
	.globl	ord
	.type	ord, @function
ord:
.LFB10:
	.cfi_startproc
	pushq	%rbp
	.cfi_def_cfa_offset 16
	.cfi_offset 6, -16
	movq	%rsp, %rbp
	.cfi_def_cfa_register 6
	movq	%rdi, -8(%rbp)
	movq	-8(%rbp), %rax
	movq	(%rax), %rax
	testq	%rax, %rax
	jne	.L36
	movq	$-1, %rax
	jmp	.L37
.L36:
	movq	-8(%rbp), %rax
	movzbl	8(%rax), %eax
	movzbl	%al, %eax
.L37:
	popq	%rbp
	.cfi_def_cfa 7, 8
	ret
	.cfi_endproc
.LFE10:
	.size	ord, .-ord
	.section	.rodata
.LC2:
	.string	"chr(%ld) out of range\n"
	.text
	.globl	chr
	.type	chr, @function
chr:
.LFB11:
	.cfi_startproc
	pushq	%rbp
	.cfi_def_cfa_offset 16
	.cfi_offset 6, -16
	movq	%rsp, %rbp
	.cfi_def_cfa_register 6
	subq	$16, %rsp
	movq	%rdi, -8(%rbp)
	cmpq	$0, -8(%rbp)
	js	.L39
	cmpq	$255, -8(%rbp)
	jle	.L40
.L39:
	movq	-8(%rbp), %rax
	movq	%rax, %rsi
	movl	$.LC2, %edi
	movl	$0, %eax
	call	printf
	movl	$1, %edi
	call	exit
.L40:
	movq	-8(%rbp), %rax
	salq	$4, %rax
	addq	$consts, %rax
	leave
	.cfi_def_cfa 7, 8
	ret
	.cfi_endproc
.LFE11:
	.size	chr, .-chr
	.globl	size
	.type	size, @function
size:
.LFB12:
	.cfi_startproc
	pushq	%rbp
	.cfi_def_cfa_offset 16
	.cfi_offset 6, -16
	movq	%rsp, %rbp
	.cfi_def_cfa_register 6
	movq	%rdi, -8(%rbp)
	movq	-8(%rbp), %rax
	movq	(%rax), %rax
	popq	%rbp
	.cfi_def_cfa 7, 8
	ret
	.cfi_endproc
.LFE12:
	.size	size, .-size
	.section	.rodata
	.align 8
.LC3:
	.string	"substring([%ld],%ld,%ld) out of range\n"
	.text
	.globl	substring
	.type	substring, @function
substring:
.LFB13:
	.cfi_startproc
	pushq	%rbp
	.cfi_def_cfa_offset 16
	.cfi_offset 6, -16
	movq	%rsp, %rbp
	.cfi_def_cfa_register 6
	subq	$48, %rsp
	movq	%rdi, -24(%rbp)
	movq	%rsi, -32(%rbp)
	movq	%rdx, -40(%rbp)
	cmpq	$0, -32(%rbp)
	js	.L45
	movq	-32(%rbp), %rdx
	movq	-40(%rbp), %rax
	addq	%rax, %rdx
	movq	-24(%rbp), %rax
	movq	(%rax), %rax
	cmpq	%rax, %rdx
	jle	.L46
.L45:
	movq	-24(%rbp), %rax
	movq	(%rax), %rax
	movq	-40(%rbp), %rcx
	movq	-32(%rbp), %rdx
	movq	%rax, %rsi
	movl	$.LC3, %edi
	movl	$0, %eax
	call	printf
	movl	$1, %edi
	call	exit
.L46:
	cmpq	$1, -40(%rbp)
	jne	.L47
	movq	-24(%rbp), %rdx
	movq	-32(%rbp), %rax
	addq	%rdx, %rax
	addq	$8, %rax
	movzbl	(%rax), %eax
	movzbl	%al, %eax
	salq	$4, %rax
	addq	$consts, %rax
	jmp	.L48
.L47:
	movq	-40(%rbp), %rax
	addq	$8, %rax
	movq	%rax, %rdi
	call	malloc
	movq	%rax, -8(%rbp)
	movq	-8(%rbp), %rax
	movq	-40(%rbp), %rdx
	movq	%rdx, (%rax)
	movl	$0, -12(%rbp)
	jmp	.L49
.L50:
	movl	-12(%rbp), %eax
	movslq	%eax, %rdx
	movq	-32(%rbp), %rax
	addq	%rax, %rdx
	movq	-24(%rbp), %rax
	movzbl	8(%rax,%rdx), %ecx
	movq	-8(%rbp), %rdx
	movl	-12(%rbp), %eax
	cltq
	movb	%cl, 8(%rdx,%rax)
	addl	$1, -12(%rbp)
.L49:
	movl	-12(%rbp), %eax
	cltq
	cmpq	-40(%rbp), %rax
	jl	.L50
	movq	-8(%rbp), %rax
.L48:
	leave
	.cfi_def_cfa 7, 8
	ret
	.cfi_endproc
.LFE13:
	.size	substring, .-substring
	.globl	concat
	.type	concat, @function
concat:
.LFB14:
	.cfi_startproc
	pushq	%rbp
	.cfi_def_cfa_offset 16
	.cfi_offset 6, -16
	movq	%rsp, %rbp
	.cfi_def_cfa_register 6
	subq	$32, %rsp
	movq	%rdi, -24(%rbp)
	movq	%rsi, -32(%rbp)
	movq	-24(%rbp), %rax
	movq	(%rax), %rax
	testq	%rax, %rax
	jne	.L52
	movq	-32(%rbp), %rax
	jmp	.L53
.L52:
	movq	-32(%rbp), %rax
	movq	(%rax), %rax
	testq	%rax, %rax
	jne	.L54
	movq	-24(%rbp), %rax
	jmp	.L53
.L54:
	movq	-24(%rbp), %rax
	movq	(%rax), %rax
	movl	%eax, %edx
	movq	-32(%rbp), %rax
	movq	(%rax), %rax
	addl	%edx, %eax
	movl	%eax, -12(%rbp)
	movl	-12(%rbp), %eax
	cltq
	addq	$8, %rax
	movq	%rax, %rdi
	call	malloc
	movq	%rax, -8(%rbp)
	movl	-12(%rbp), %eax
	movslq	%eax, %rdx
	movq	-8(%rbp), %rax
	movq	%rdx, (%rax)
	movl	$0, -16(%rbp)
	jmp	.L55
.L56:
	movq	-24(%rbp), %rdx
	movl	-16(%rbp), %eax
	cltq
	movzbl	8(%rdx,%rax), %ecx
	movq	-8(%rbp), %rdx
	movl	-16(%rbp), %eax
	cltq
	movb	%cl, 8(%rdx,%rax)
	addl	$1, -16(%rbp)
.L55:
	movl	-16(%rbp), %eax
	movslq	%eax, %rdx
	movq	-24(%rbp), %rax
	movq	(%rax), %rax
	cmpq	%rax, %rdx
	jl	.L56
	movl	$0, -16(%rbp)
	jmp	.L57
.L58:
	movl	-16(%rbp), %eax
	movslq	%eax, %rdx
	movq	-24(%rbp), %rax
	movq	(%rax), %rax
	leaq	(%rdx,%rax), %rcx
	movq	-32(%rbp), %rdx
	movl	-16(%rbp), %eax
	cltq
	movzbl	8(%rdx,%rax), %edx
	movq	-8(%rbp), %rax
	movb	%dl, 8(%rax,%rcx)
	addl	$1, -16(%rbp)
.L57:
	movl	-16(%rbp), %eax
	movslq	%eax, %rdx
	movq	-32(%rbp), %rax
	movq	(%rax), %rax
	cmpq	%rax, %rdx
	jl	.L58
	movq	-8(%rbp), %rax
.L53:
	leave
	.cfi_def_cfa 7, 8
	ret
	.cfi_endproc
.LFE14:
	.size	concat, .-concat
	.globl	not
	.type	not, @function
not:
.LFB15:
	.cfi_startproc
	pushq	%rbp
	.cfi_def_cfa_offset 16
	.cfi_offset 6, -16
	movq	%rsp, %rbp
	.cfi_def_cfa_register 6
	movq	%rdi, -8(%rbp)
	cmpq	$0, -8(%rbp)
	sete	%al
	movzbl	%al, %eax
	popq	%rbp
	.cfi_def_cfa 7, 8
	ret
	.cfi_endproc
.LFE15:
	.size	not, .-not
	.globl	getstr
	.type	getstr, @function
getstr:
.LFB16:
	.cfi_startproc
	pushq	%rbp
	.cfi_def_cfa_offset 16
	.cfi_offset 6, -16
	movq	%rsp, %rbp
	.cfi_def_cfa_register 6
	subq	$16, %rsp
	movq	stdin(%rip), %rax
	movq	%rax, %rdi
	call	_IO_getc
	movl	%eax, -4(%rbp)
	cmpl	$-1, -4(%rbp)
	jne	.L62
	movl	$empty, %eax
	jmp	.L63
.L62:
	movl	-4(%rbp), %eax
	cltq
	salq	$4, %rax
	addq	$consts, %rax
.L63:
	leave
	.cfi_def_cfa 7, 8
	ret
	.cfi_endproc
.LFE16:
	.size	getstr, .-getstr
	.globl	main
	.type	main, @function
main:
.LFB17:
	.cfi_startproc
	pushq	%rbp
	.cfi_def_cfa_offset 16
	.cfi_offset 6, -16
	movq	%rsp, %rbp
	.cfi_def_cfa_register 6
	movl	$0, %edi
	movl	$0, %eax
	call	tigermain
	popq	%rbp
	.cfi_def_cfa 7, 8
	ret
	.cfi_endproc
.LFE17:
	.size	main, .-main
	.ident	"GCC: (Ubuntu 5.4.0-6ubuntu1~16.04.12) 5.4.0 20160609"
	.section	.note.GNU-stack,"",@progbits
